target datalayout = "e-m:e-p270:32:32-p271:32:32-p272:64:64-i64:64-i128:128-f80:128-n8:16:32:64-S128"
target triple = "x86_64-pc-linux-gnu"

%struct._archiveHandle = type { %struct.Archive, i32, ptr, ptr, i64, i64, i32, %struct.sqlparseInfo, i64, i32, ptr, i64, i64, i64, ptr, ptr, ptr, ptr, ptr, ptr, ptr, ptr, ptr, ptr, ptr, ptr, ptr, ptr, ptr, ptr, ptr, ptr, ptr, ptr, ptr, ptr, ptr, ptr, ptr, ptr, ptr, ptr, ptr, ptr, i32, i32, i8, i32, i8, i32, ptr, ptr, ptr, ptr, i32, i32, ptr, ptr, ptr, %struct.pg_compress_specification, i8, i32, i32, ptr, ptr, ptr, ptr, ptr, i32, ptr, i64, i64, i32, i32, i32, i32, ptr, ptr }
%struct.Archive = type { ptr, ptr, i32, ptr, i32, i8, i32, i32, i32, ptr, i32, i8, ptr, ptr, i8, i32, ptr }
%struct.sqlparseInfo = type { i32, i8, ptr }
%struct.pg_compress_specification = type { i32, i32, i32, i32, i8, ptr }
%struct.lclContext = type { ptr, i32, i64 }

@.str.9 = private unnamed_addr constant [27 x i8] c"error during file seek: %m\00", align 1
@.str.16 = private unnamed_addr constant [44 x i8] c"could not read from input file: end of file\00", align 1
@.str.17 = private unnamed_addr constant [35 x i8] c"could not read from input file: %m\00", align 1

; Function Attrs: nounwind uwtable
define internal void @_skipData(ptr noundef %0) #0 {
  %2 = alloca ptr, align 8
  %3 = alloca ptr, align 8
  %4 = alloca i64, align 8
  %5 = alloca ptr, align 8
  %6 = alloca i32, align 4
  store ptr %0, ptr %2, align 8
  call void @llvm.lifetime.start.p0(i64 8, ptr %3) #7
  %7 = load ptr, ptr %2, align 8
  %8 = getelementptr inbounds nuw %struct._archiveHandle, ptr %7, i32 0, i32 63
  %9 = load ptr, ptr %8, align 8
  store ptr %9, ptr %3, align 8
  call void @llvm.lifetime.start.p0(i64 8, ptr %4) #7
  call void @llvm.lifetime.start.p0(i64 8, ptr %5) #7
  store ptr null, ptr %5, align 8
  call void @llvm.lifetime.start.p0(i64 4, ptr %6) #7
  store i32 0, ptr %6, align 4
  %10 = load ptr, ptr %2, align 8
  %11 = call i32 @ReadInt(ptr noundef %10)
  %12 = sext i32 %11 to i64
  store i64 %12, ptr %4, align 8
  br label %13

13:                                               ; preds = %69, %1
  %14 = load i64, ptr %4, align 8
  %15 = icmp ne i64 %14, 0
  br i1 %15, label %16, label %73

16:                                               ; preds = %13
  %17 = load ptr, ptr %3, align 8
  %18 = getelementptr inbounds nuw %struct.lclContext, ptr %17, i32 0, i32 1
  %19 = load i32, ptr %18, align 8
  %20 = icmp ne i32 %19, 0
  br i1 %20, label %21, label %33

21:                                               ; preds = %16
  %22 = load ptr, ptr %2, align 8
  %23 = getelementptr inbounds nuw %struct._archiveHandle, ptr %22, i32 0, i32 51
  %24 = load ptr, ptr %23, align 8
  %25 = load i64, ptr %4, align 8
  %26 = call i32 @fseeko(ptr noundef %24, i64 noundef %25, i32 noundef 1)
  %27 = icmp ne i32 %26, 0
  br i1 %27, label %28, label %32

28:                                               ; preds = %21
  br label %29

29:                                               ; preds = %28
  call void (i32, i32, ptr, ...) @pg_log_generic(i32 noundef 4, i32 noundef 0, ptr noundef @.str.9)
  call void @exit_nicely(i32 noundef 1) #9
  unreachable

30:                                               ; No predecessors!
  br label %31

31:                                               ; preds = %30
  br label %32

32:                                               ; preds = %31, %21
  br label %69

33:                                               ; preds = %16
  %34 = load i64, ptr %4, align 8
  %35 = load i32, ptr %6, align 4
  %36 = sext i32 %35 to i64
  %37 = icmp ugt i64 %34, %36
  br i1 %37, label %38, label %44

38:                                               ; preds = %33
  %39 = load ptr, ptr %5, align 8
  call void @free(ptr noundef %39) #7
  %40 = load i64, ptr %4, align 8
  %41 = call ptr @pg_malloc(i64 noundef %40)
  store ptr %41, ptr %5, align 8
  %42 = load i64, ptr %4, align 8
  %43 = trunc i64 %42 to i32
  store i32 %43, ptr %6, align 4
  br label %44

44:                                               ; preds = %38, %33
  %45 = load ptr, ptr %5, align 8
  %46 = load i64, ptr %4, align 8
  %47 = load ptr, ptr %2, align 8
  %48 = getelementptr inbounds nuw %struct._archiveHandle, ptr %47, i32 0, i32 51
  %49 = load ptr, ptr %48, align 8
  %50 = call i64 @fread(ptr noundef %45, i64 noundef 1, i64 noundef %46, ptr noundef %49)
  %51 = load i64, ptr %4, align 8
  %52 = icmp ne i64 %50, %51
  br i1 %52, label %53, label %68

53:                                               ; preds = %44
  %54 = load ptr, ptr %2, align 8
  %55 = getelementptr inbounds nuw %struct._archiveHandle, ptr %54, i32 0, i32 51
  %56 = load ptr, ptr %55, align 8
  %57 = call i32 @feof(ptr noundef %56) #7
  %58 = icmp ne i32 %57, 0
  br i1 %58, label %59, label %63

59:                                               ; preds = %53
  br label %60

60:                                               ; preds = %59
  call void (i32, i32, ptr, ...) @pg_log_generic(i32 noundef 4, i32 noundef 0, ptr noundef @.str.16)
  call void @exit_nicely(i32 noundef 1) #9
  unreachable

61:                                               ; No predecessors!
  br label %62

62:                                               ; preds = %61
  br label %67

63:                                               ; preds = %53
  br label %64

64:                                               ; preds = %63
  call void (i32, i32, ptr, ...) @pg_log_generic(i32 noundef 4, i32 noundef 0, ptr noundef @.str.17)
  call void @exit_nicely(i32 noundef 1) #9
  unreachable

65:                                               ; No predecessors!
  br label %66

66:                                               ; preds = %65
  br label %67

67:                                               ; preds = %66, %62
  br label %68

68:                                               ; preds = %67, %44
  br label %69

69:                                               ; preds = %68, %32
  %70 = load ptr, ptr %2, align 8
  %71 = call i32 @ReadInt(ptr noundef %70)
  %72 = sext i32 %71 to i64
  store i64 %72, ptr %4, align 8
  br label %13, !llvm.loop !8

73:                                               ; preds = %13
  %74 = load ptr, ptr %5, align 8
  call void @free(ptr noundef %74) #7
  call void @llvm.lifetime.end.p0(i64 4, ptr %6) #7
  call void @llvm.lifetime.end.p0(i64 8, ptr %5) #7
  call void @llvm.lifetime.end.p0(i64 8, ptr %4) #7
  call void @llvm.lifetime.end.p0(i64 8, ptr %3) #7
  ret void
}