; Function Attrs: nounwind uwtable
define internal fastcc void @_skipData(ptr noundef %0) unnamed_addr #0 {
  %2 = getelementptr inbounds nuw i8, ptr %0, i64 592
  %3 = load ptr, ptr %2, align 8
  %4 = tail call i32 @ReadInt(ptr noundef %0) #7
  %.not28 = icmp eq i32 %4, 0
  br i1 %.not28, label %._crit_edge, label %.lr.ph

.lr.ph:                                           ; preds = %1
  %5 = getelementptr inbounds nuw i8, ptr %3, i64 8
  %6 = getelementptr inbounds nuw i8, ptr %0, i64 488
  br label %7

7:                                                ; preds = %.lr.ph, %25
  %.031 = phi i32 [ 0, %.lr.ph ], [ %.1, %25 ]
  %.01730 = phi ptr [ null, %.lr.ph ], [ %.118, %25 ]
  %.020.in29 = phi i32 [ %4, %.lr.ph ], [ %26, %25 ]
  %.02032 = sext i32 %.020.in29 to i64
  %8 = load i32, ptr %5, align 8
  %.not21 = icmp eq i32 %8, 0
  br i1 %.not21, label %13, label %9

9:                                                ; preds = %7
  %10 = load ptr, ptr %6, align 8
  %11 = tail call i32 @fseeko(ptr noundef %10, i64 noundef %.02032, i32 noundef 1)
  %.not24 = icmp eq i32 %11, 0
  br i1 %.not24, label %25, label %12

12:                                               ; preds = %9
  tail call void (i32, i32, ptr, ...) @pg_log_generic(i32 noundef 4, i32 noundef 0, ptr noundef nonnull @.str.9) #7
  tail call void @exit_nicely(i32 noundef 1) #8
  unreachable

13:                                               ; preds = %7
  %14 = icmp ugt i32 %.020.in29, %.031
  br i1 %14, label %15, label %17

15:                                               ; preds = %13
  tail call void @free(ptr noundef %.01730) #7
  %16 = tail call ptr @pg_malloc(i64 noundef %.02032) #7
  br label %17

17:                                               ; preds = %15, %13
  %.219 = phi ptr [ %16, %15 ], [ %.01730, %13 ]
  %.2 = phi i32 [ %.020.in29, %15 ], [ %.031, %13 ]
  %18 = load ptr, ptr %6, align 8
  %19 = tail call i64 @fread(ptr noundef %.219, i64 noundef 1, i64 noundef %.02032, ptr noundef %18)
  %.not22 = icmp eq i64 %19, %.02032
  br i1 %.not22, label %25, label %20

20:                                               ; preds = %17
  %21 = load ptr, ptr %6, align 8
  %22 = tail call i32 @feof(ptr noundef %21) #7
  %.not23 = icmp eq i32 %22, 0
  br i1 %.not23, label %24, label %23

23:                                               ; preds = %20
  tail call void (i32, i32, ptr, ...) @pg_log_generic(i32 noundef 4, i32 noundef 0, ptr noundef nonnull @.str.16) #7
  tail call void @exit_nicely(i32 noundef 1) #8
  unreachable

24:                                               ; preds = %20
  tail call void (i32, i32, ptr, ...) @pg_log_generic(i32 noundef 4, i32 noundef 0, ptr noundef nonnull @.str.17) #7
  tail call void @exit_nicely(i32 noundef 1) #8
  unreachable

25:                                               ; preds = %17, %9
  %.118 = phi ptr [ %.01730, %9 ], [ %.219, %17 ]
  %.1 = phi i32 [ %.031, %9 ], [ %.2, %17 ]
  %26 = tail call i32 @ReadInt(ptr noundef nonnull %0) #7
  %.not = icmp eq i32 %26, 0
  br i1 %.not, label %._crit_edge, label %7, !llvm.loop !10

._crit_edge:                                      ; preds = %25, %1
  %.017.lcssa = phi ptr [ null, %1 ], [ %.118, %25 ]
  tail call void @free(ptr noundef %.017.lcssa) #7
  ret void
}